target datalayout = "e-m:e-p270:32:32-p271:32:32-p272:64:64-i64:64-i128:128-f80:128-n8:16:32:64-S128"
target triple = "x86_64-pc-linux-gnu"

; Function Attrs: nounwind uwtable
define internal void @lbr_bank_c(ptr noundef %0, ptr noundef %1, ptr noundef %2, i64 noundef %3, i64 noundef %4) #1 {
  %6 = alloca ptr, align 8
  %7 = alloca ptr, align 8
  %8 = alloca ptr, align 8
  %9 = alloca i64, align 8
  %10 = alloca i64, align 8
  %11 = alloca float, align 4
  %12 = alloca float, align 4
  %13 = alloca float, align 4
  %14 = alloca float, align 4
  %15 = alloca float, align 4
  %16 = alloca float, align 4
  %17 = alloca float, align 4
  %18 = alloca float, align 4
  %19 = alloca float, align 4
  %20 = alloca float, align 4
  %21 = alloca i32, align 4
  %22 = alloca ptr, align 8
  %23 = alloca float, align 4
  %24 = alloca float, align 4
  %25 = alloca float, align 4
  %26 = alloca float, align 4
  %27 = alloca float, align 4
  %28 = alloca float, align 4
  store ptr %0, ptr %6, align 8, !tbaa !42
  store ptr %1, ptr %7, align 8, !tbaa !82
  store ptr %2, ptr %8, align 8, !tbaa !42
  store i64 %3, ptr %9, align 8, !tbaa !32
  store i64 %4, ptr %10, align 8, !tbaa !32
  call void @llvm.lifetime.start.p0(i64 4, ptr %11) #7
  %29 = load ptr, ptr %8, align 8, !tbaa !42
  %30 = getelementptr inbounds float, ptr %29, i64 0
  %31 = load float, ptr %30, align 4, !tbaa !44
  store float %31, ptr %11, align 4, !tbaa !44
  call void @llvm.lifetime.start.p0(i64 4, ptr %12) #7
  %32 = load ptr, ptr %8, align 8, !tbaa !42
  %33 = getelementptr inbounds float, ptr %32, i64 1
  %34 = load float, ptr %33, align 4, !tbaa !44
  store float %34, ptr %12, align 4, !tbaa !44
  call void @llvm.lifetime.start.p0(i64 4, ptr %13) #7
  %35 = load ptr, ptr %8, align 8, !tbaa !42
  %36 = getelementptr inbounds float, ptr %35, i64 2
  %37 = load float, ptr %36, align 4, !tbaa !44
  store float %37, ptr %13, align 4, !tbaa !44
  call void @llvm.lifetime.start.p0(i64 4, ptr %14) #7
  %38 = load ptr, ptr %8, align 8, !tbaa !42
  %39 = getelementptr inbounds float, ptr %38, i64 3
  %40 = load float, ptr %39, align 4, !tbaa !44
  store float %40, ptr %14, align 4, !tbaa !44
  call void @llvm.lifetime.start.p0(i64 4, ptr %15) #7
  %41 = load ptr, ptr %8, align 8, !tbaa !42
  %42 = getelementptr inbounds float, ptr %41, i64 4
  %43 = load float, ptr %42, align 4, !tbaa !44
  store float %43, ptr %15, align 4, !tbaa !44
  call void @llvm.lifetime.start.p0(i64 4, ptr %16) #7
  %44 = load ptr, ptr %8, align 8, !tbaa !42
  %45 = getelementptr inbounds float, ptr %44, i64 5
  %46 = load float, ptr %45, align 4, !tbaa !44
  store float %46, ptr %16, align 4, !tbaa !44
  call void @llvm.lifetime.start.p0(i64 4, ptr %17) #7
  %47 = load ptr, ptr %8, align 8, !tbaa !42
  %48 = getelementptr inbounds float, ptr %47, i64 6
  %49 = load float, ptr %48, align 4, !tbaa !44
  store float %49, ptr %17, align 4, !tbaa !44
  call void @llvm.lifetime.start.p0(i64 4, ptr %18) #7
  %50 = load ptr, ptr %8, align 8, !tbaa !42
  %51 = getelementptr inbounds float, ptr %50, i64 7
  %52 = load float, ptr %51, align 4, !tbaa !44
  store float %52, ptr %18, align 4, !tbaa !44
  call void @llvm.lifetime.start.p0(i64 4, ptr %19) #7
  %53 = load ptr, ptr %8, align 8, !tbaa !42
  %54 = getelementptr inbounds float, ptr %53, i64 8
  %55 = load float, ptr %54, align 4, !tbaa !44
  store float %55, ptr %19, align 4, !tbaa !44
  call void @llvm.lifetime.start.p0(i64 4, ptr %20) #7
  %56 = load ptr, ptr %8, align 8, !tbaa !42
  %57 = getelementptr inbounds float, ptr %56, i64 9
  %58 = load float, ptr %57, align 4, !tbaa !44
  store float %58, ptr %20, align 4, !tbaa !44
  call void @llvm.lifetime.start.p0(i64 4, ptr %21) #7
  store i32 0, ptr %21, align 4, !tbaa !34
  br label %59

59:                                               ; preds = %190, %5
  %60 = load i32, ptr %21, align 4, !tbaa !34
  %61 = sext i32 %60 to i64
  %62 = load i64, ptr %10, align 8, !tbaa !32
  %63 = icmp slt i64 %61, %62
  br i1 %63, label %64, label %193

64:                                               ; preds = %59
  call void @llvm.lifetime.start.p0(i64 8, ptr %22) #7
  %65 = load ptr, ptr %7, align 8, !tbaa !82
  %66 = load i32, ptr %21, align 4, !tbaa !34
  %67 = sext i32 %66 to i64
  %68 = getelementptr inbounds ptr, ptr %65, i64 %67
  %69 = load ptr, ptr %68, align 8, !tbaa !42
  %70 = load i64, ptr %9, align 8, !tbaa !32
  %71 = getelementptr inbounds float, ptr %69, i64 %70
  store ptr %71, ptr %22, align 8, !tbaa !42
  call void @llvm.lifetime.start.p0(i64 4, ptr %23) #7
  %72 = load ptr, ptr %22, align 8, !tbaa !42
  %73 = getelementptr inbounds float, ptr %72, i64 -4
  %74 = load float, ptr %73, align 4, !tbaa !44
  %75 = load float, ptr %11, align 4, !tbaa !44
  %76 = load ptr, ptr %22, align 8, !tbaa !42
  %77 = getelementptr inbounds float, ptr %76, i64 -1
  %78 = load float, ptr %77, align 4, !tbaa !44
  %79 = load float, ptr %14, align 4, !tbaa !44
  %80 = fmul nsz float %78, %79
  %81 = fneg nsz float %80
  %82 = call nsz float @llvm.fmuladd.f32(float %74, float %75, float %81)
  store float %82, ptr %23, align 4, !tbaa !44
  call void @llvm.lifetime.start.p0(i64 4, ptr %24) #7
  %83 = load ptr, ptr %22, align 8, !tbaa !42
  %84 = getelementptr inbounds float, ptr %83, i64 -3
  %85 = load float, ptr %84, align 4, !tbaa !44
  %86 = load float, ptr %12, align 4, !tbaa !44
  %87 = load ptr, ptr %22, align 8, !tbaa !42
  %88 = getelementptr inbounds float, ptr %87, i64 -2
  %89 = load float, ptr %88, align 4, !tbaa !44
  %90 = load float, ptr %13, align 4, !tbaa !44
  %91 = fmul nsz float %89, %90
  %92 = fneg nsz float %91
  %93 = call nsz float @llvm.fmuladd.f32(float %85, float %86, float %92)
  store float %93, ptr %24, align 4, !tbaa !44
  call void @llvm.lifetime.start.p0(i64 4, ptr %25) #7
  %94 = load ptr, ptr %22, align 8, !tbaa !42
  %95 = getelementptr inbounds float, ptr %94, i64 2
  %96 = load float, ptr %95, align 4, !tbaa !44
  %97 = load float, ptr %12, align 4, !tbaa !44
  %98 = load ptr, ptr %22, align 8, !tbaa !42
  %99 = getelementptr inbounds float, ptr %98, i64 1
  %100 = load float, ptr %99, align 4, !tbaa !44
  %101 = load float, ptr %13, align 4, !tbaa !44
  %102 = fmul nsz float %100, %101
  %103 = call nsz float @llvm.fmuladd.f32(float %96, float %97, float %102)
  store float %103, ptr %25, align 4, !tbaa !44
  call void @llvm.lifetime.start.p0(i64 4, ptr %26) #7
  %104 = load ptr, ptr %22, align 8, !tbaa !42
  %105 = getelementptr inbounds float, ptr %104, i64 3
  %106 = load float, ptr %105, align 4, !tbaa !44
  %107 = load float, ptr %11, align 4, !tbaa !44
  %108 = load ptr, ptr %22, align 8, !tbaa !42
  %109 = getelementptr inbounds float, ptr %108, i64 0
  %110 = load float, ptr %109, align 4, !tbaa !44
  %111 = load float, ptr %14, align 4, !tbaa !44
  %112 = fmul nsz float %110, %111
  %113 = call nsz float @llvm.fmuladd.f32(float %106, float %107, float %112)
  store float %113, ptr %26, align 4, !tbaa !44
  %114 = load float, ptr %15, align 4, !tbaa !44
  %115 = load float, ptr %24, align 4, !tbaa !44
  %116 = load float, ptr %16, align 4, !tbaa !44
  %117 = load float, ptr %25, align 4, !tbaa !44
  %118 = fmul nsz float %116, %117
  %119 = fneg nsz float %118
  %120 = call nsz float @llvm.fmuladd.f32(float %114, float %115, float %119)
  %121 = load float, ptr %18, align 4, !tbaa !44
  %122 = load float, ptr %23, align 4, !tbaa !44
  %123 = call nsz float @llvm.fmuladd.f32(float %121, float %122, float %120)
  %124 = load float, ptr %17, align 4, !tbaa !44
  %125 = load float, ptr %26, align 4, !tbaa !44
  %126 = fneg nsz float %124
  %127 = call nsz float @llvm.fmuladd.f32(float %126, float %125, float %123)
  %128 = load ptr, ptr %6, align 8, !tbaa !42
  %129 = load i32, ptr %21, align 4, !tbaa !34
  %130 = sext i32 %129 to i64
  %131 = getelementptr inbounds [4 x float], ptr %128, i64 %130
  %132 = getelementptr inbounds [4 x float], ptr %131, i64 0, i64 0
  store float %127, ptr %132, align 4, !tbaa !44
  %133 = load float, ptr %15, align 4, !tbaa !44
  %134 = load float, ptr %26, align 4, !tbaa !44
  %135 = load float, ptr %16, align 4, !tbaa !44
  %136 = load float, ptr %23, align 4, !tbaa !44
  %137 = fmul nsz float %135, %136
  %138 = fneg nsz float %137
  %139 = call nsz float @llvm.fmuladd.f32(float %133, float %134, float %138)
  %140 = load float, ptr %18, align 4, !tbaa !44
  %141 = load float, ptr %24, align 4, !tbaa !44
  %142 = fneg nsz float %140
  %143 = call nsz float @llvm.fmuladd.f32(float %142, float %141, float %139)
  %144 = load float, ptr %17, align 4, !tbaa !44
  %145 = load float, ptr %25, align 4, !tbaa !44
  %146 = fneg nsz float %144
  %147 = call nsz float @llvm.fmuladd.f32(float %146, float %145, float %143)
  %148 = load ptr, ptr %6, align 8, !tbaa !42
  %149 = load i32, ptr %21, align 4, !tbaa !34
  %150 = sext i32 %149 to i64
  %151 = getelementptr inbounds [4 x float], ptr %148, i64 %150
  %152 = getelementptr inbounds [4 x float], ptr %151, i64 0, i64 1
  store float %147, ptr %152, align 4, !tbaa !44
  %153 = load float, ptr %17, align 4, !tbaa !44
  %154 = load float, ptr %24, align 4, !tbaa !44
  %155 = load float, ptr %16, align 4, !tbaa !44
  %156 = load float, ptr %26, align 4, !tbaa !44
  %157 = fmul nsz float %155, %156
  %158 = call nsz float @llvm.fmuladd.f32(float %153, float %154, float %157)
  %159 = load float, ptr %18, align 4, !tbaa !44
  %160 = load float, ptr %25, align 4, !tbaa !44
  %161 = fneg nsz float %159
  %162 = call nsz float @llvm.fmuladd.f32(float %161, float %160, float %158)
  %163 = load float, ptr %15, align 4, !tbaa !44
  %164 = load float, ptr %23, align 4, !tbaa !44
  %165 = call nsz float @llvm.fmuladd.f32(float %163, float %164, float %162)
  %166 = load ptr, ptr %6, align 8, !tbaa !42
  %167 = load i32, ptr %21, align 4, !tbaa !34
  %168 = sext i32 %167 to i64
  %169 = getelementptr inbounds [4 x float], ptr %166, i64 %168
  %170 = getelementptr inbounds [4 x float], ptr %169, i64 0, i64 2
  store float %165, ptr %170, align 4, !tbaa !44
  %171 = load float, ptr %17, align 4, !tbaa !44
  %172 = load float, ptr %23, align 4, !tbaa !44
  %173 = load float, ptr %16, align 4, !tbaa !44
  %174 = load float, ptr %24, align 4, !tbaa !44
  %175 = fmul nsz float %173, %174
  %176 = fneg nsz float %175
  %177 = call nsz float @llvm.fmuladd.f32(float %171, float %172, float %176)
  %178 = load float, ptr %18, align 4, !tbaa !44
  %179 = load float, ptr %26, align 4, !tbaa !44
  %180 = call nsz float @llvm.fmuladd.f32(float %178, float %179, float %177)
  %181 = load float, ptr %15, align 4, !tbaa !44
  %182 = load float, ptr %25, align 4, !tbaa !44
  %183 = fneg nsz float %181
  %184 = call nsz float @llvm.fmuladd.f32(float %183, float %182, float %180)
  %185 = load ptr, ptr %6, align 8, !tbaa !42
  %186 = load i32, ptr %21, align 4, !tbaa !34
  %187 = sext i32 %186 to i64
  %188 = getelementptr inbounds [4 x float], ptr %185, i64 %187
  %189 = getelementptr inbounds [4 x float], ptr %188, i64 0, i64 3
  store float %184, ptr %189, align 4, !tbaa !44
  call void @llvm.lifetime.end.p0(i64 4, ptr %26) #7
  call void @llvm.lifetime.end.p0(i64 4, ptr %25) #7
  call void @llvm.lifetime.end.p0(i64 4, ptr %24) #7
  call void @llvm.lifetime.end.p0(i64 4, ptr %23) #7
  call void @llvm.lifetime.end.p0(i64 8, ptr %22) #7
  br label %190

190:                                              ; preds = %64
  %191 = load i32, ptr %21, align 4, !tbaa !34
  %192 = add nsw i32 %191, 1
  store i32 %192, ptr %21, align 4, !tbaa !34
  br label %59, !llvm.loop !84

193:                                              ; preds = %59
  store i32 12, ptr %21, align 4, !tbaa !34
  br label %194

194:                                              ; preds = %277, %193
  %195 = load i32, ptr %21, align 4, !tbaa !34
  %196 = sext i32 %195 to i64
  %197 = load i64, ptr %10, align 8, !tbaa !32
  %198 = sub nsw i64 %197, 1
  %199 = icmp slt i64 %196, %198
  br i1 %199, label %200, label %280

200:                                              ; preds = %194
  call void @llvm.lifetime.start.p0(i64 4, ptr %27) #7
  %201 = load ptr, ptr %6, align 8, !tbaa !42
  %202 = load i32, ptr %21, align 4, !tbaa !34
  %203 = sext i32 %202 to i64
  %204 = getelementptr inbounds [4 x float], ptr %201, i64 %203
  %205 = getelementptr inbounds [4 x float], ptr %204, i64 0, i64 3
  %206 = load float, ptr %205, align 4, !tbaa !44
  %207 = load float, ptr %19, align 4, !tbaa !44
  %208 = fmul nsz float %206, %207
  store float %208, ptr %27, align 4, !tbaa !44
  call void @llvm.lifetime.start.p0(i64 4, ptr %28) #7
  %209 = load ptr, ptr %6, align 8, !tbaa !42
  %210 = load i32, ptr %21, align 4, !tbaa !34
  %211 = add nsw i32 %210, 1
  %212 = sext i32 %211 to i64
  %213 = getelementptr inbounds [4 x float], ptr %209, i64 %212
  %214 = getelementptr inbounds [4 x float], ptr %213, i64 0, i64 0
  %215 = load float, ptr %214, align 4, !tbaa !44
  %216 = load float, ptr %19, align 4, !tbaa !44
  %217 = fmul nsz float %215, %216
  store float %217, ptr %28, align 4, !tbaa !44
  %218 = load float, ptr %28, align 4, !tbaa !44
  %219 = load float, ptr %27, align 4, !tbaa !44
  %220 = fsub nsz float %218, %219
  %221 = load ptr, ptr %6, align 8, !tbaa !42
  %222 = load i32, ptr %21, align 4, !tbaa !34
  %223 = sext i32 %222 to i64
  %224 = getelementptr inbounds [4 x float], ptr %221, i64 %223
  %225 = getelementptr inbounds [4 x float], ptr %224, i64 0, i64 3
  %226 = load float, ptr %225, align 4, !tbaa !44
  %227 = fadd nsz float %226, %220
  store float %227, ptr %225, align 4, !tbaa !44
  %228 = load float, ptr %28, align 4, !tbaa !44
  %229 = load float, ptr %27, align 4, !tbaa !44
  %230 = fadd nsz float %228, %229
  %231 = load ptr, ptr %6, align 8, !tbaa !42
  %232 = load i32, ptr %21, align 4, !tbaa !34
  %233 = add nsw i32 %232, 1
  %234 = sext i32 %233 to i64
  %235 = getelementptr inbounds [4 x float], ptr %231, i64 %234
  %236 = getelementptr inbounds [4 x float], ptr %235, i64 0, i64 0
  %237 = load float, ptr %236, align 4, !tbaa !44
  %238 = fsub nsz float %237, %230
  store float %238, ptr %236, align 4, !tbaa !44
  %239 = load ptr, ptr %6, align 8, !tbaa !42
  %240 = load i32, ptr %21, align 4, !tbaa !34
  %241 = sext i32 %240 to i64
  %242 = getelementptr inbounds [4 x float], ptr %239, i64 %241
  %243 = getelementptr inbounds [4 x float], ptr %242, i64 0, i64 2
  %244 = load float, ptr %243, align 4, !tbaa !44
  %245 = load float, ptr %20, align 4, !tbaa !44
  %246 = fmul nsz float %244, %245
  store float %246, ptr %27, align 4, !tbaa !44
  %247 = load ptr, ptr %6, align 8, !tbaa !42
  %248 = load i32, ptr %21, align 4, !tbaa !34
  %249 = add nsw i32 %248, 1
  %250 = sext i32 %249 to i64
  %251 = getelementptr inbounds [4 x float], ptr %247, i64 %250
  %252 = getelementptr inbounds [4 x float], ptr %251, i64 0, i64 1
  %253 = load float, ptr %252, align 4, !tbaa !44
  %254 = load float, ptr %20, align 4, !tbaa !44
  %255 = fmul nsz float %253, %254
  store float %255, ptr %28, align 4, !tbaa !44
  %256 = load float, ptr %28, align 4, !tbaa !44
  %257 = load float, ptr %27, align 4, !tbaa !44
  %258 = fsub nsz float %256, %257
  %259 = load ptr, ptr %6, align 8, !tbaa !42
  %260 = load i32, ptr %21, align 4, !tbaa !34
  %261 = sext i32 %260 to i64
  %262 = getelementptr inbounds [4 x float], ptr %259, i64 %261
  %263 = getelementptr inbounds [4 x float], ptr %262, i64 0, i64 2
  %264 = load float, ptr %263, align 4, !tbaa !44
  %265 = fadd nsz float %264, %258
  store float %265, ptr %263, align 4, !tbaa !44
  %266 = load float, ptr %28, align 4, !tbaa !44
  %267 = load float, ptr %27, align 4, !tbaa !44
  %268 = fadd nsz float %266, %267
  %269 = load ptr, ptr %6, align 8, !tbaa !42
  %270 = load i32, ptr %21, align 4, !tbaa !34
  %271 = add nsw i32 %270, 1
  %272 = sext i32 %271 to i64
  %273 = getelementptr inbounds [4 x float], ptr %269, i64 %272
  %274 = getelementptr inbounds [4 x float], ptr %273, i64 0, i64 1
  %275 = load float, ptr %274, align 4, !tbaa !44
  %276 = fsub nsz float %275, %268
  store float %276, ptr %274, align 4, !tbaa !44
  call void @llvm.lifetime.end.p0(i64 4, ptr %28) #7
  call void @llvm.lifetime.end.p0(i64 4, ptr %27) #7
  br label %277

277:                                              ; preds = %200
  %278 = load i32, ptr %21, align 4, !tbaa !34
  %279 = add nsw i32 %278, 1
  store i32 %279, ptr %21, align 4, !tbaa !34
  br label %194, !llvm.loop !85

280:                                              ; preds = %194
  call void @llvm.lifetime.end.p0(i64 4, ptr %21) #7
  call void @llvm.lifetime.end.p0(i64 4, ptr %20) #7
  call void @llvm.lifetime.end.p0(i64 4, ptr %19) #7
  call void @llvm.lifetime.end.p0(i64 4, ptr %18) #7
  call void @llvm.lifetime.end.p0(i64 4, ptr %17) #7
  call void @llvm.lifetime.end.p0(i64 4, ptr %16) #7
  call void @llvm.lifetime.end.p0(i64 4, ptr %15) #7
  call void @llvm.lifetime.end.p0(i64 4, ptr %14) #7
  call void @llvm.lifetime.end.p0(i64 4, ptr %13) #7
  call void @llvm.lifetime.end.p0(i64 4, ptr %12) #7
  call void @llvm.lifetime.end.p0(i64 4, ptr %11) #7
  ret void
}