; Function Attrs: nofree norecurse nosync nounwind memory(read, argmem: readwrite, inaccessiblemem: none) uwtable
define internal void @lbr_bank_c(ptr noundef captures(none) %0, ptr noundef readonly captures(none) %1, ptr noundef readonly captures(none) %2, i64 noundef %3, i64 noundef %4) #5 {
  %6 = load float, ptr %2, align 4, !tbaa !33
  %7 = getelementptr inbounds nuw i8, ptr %2, i64 4
  %8 = load float, ptr %7, align 4, !tbaa !33
  %9 = getelementptr inbounds nuw i8, ptr %2, i64 8
  %10 = load float, ptr %9, align 4, !tbaa !33
  %11 = getelementptr inbounds nuw i8, ptr %2, i64 12
  %12 = load float, ptr %11, align 4, !tbaa !33
  %13 = getelementptr inbounds nuw i8, ptr %2, i64 16
  %14 = load float, ptr %13, align 4, !tbaa !33
  %15 = getelementptr inbounds nuw i8, ptr %2, i64 20
  %16 = load float, ptr %15, align 4, !tbaa !33
  %17 = getelementptr inbounds nuw i8, ptr %2, i64 24
  %18 = load float, ptr %17, align 4, !tbaa !33
  %19 = getelementptr inbounds nuw i8, ptr %2, i64 28
  %20 = load float, ptr %19, align 4, !tbaa !33
  %21 = getelementptr inbounds nuw i8, ptr %2, i64 32
  %22 = load float, ptr %21, align 4, !tbaa !33
  %23 = getelementptr inbounds nuw i8, ptr %2, i64 36
  %24 = load float, ptr %23, align 4, !tbaa !33
  %25 = icmp sgt i64 %4, 0
  br i1 %25, label %.lr.ph, label %._crit_edge

.lr.ph:                                           ; preds = %5
  %26 = fneg nsz float %12
  %27 = fneg nsz float %10
  %28 = fneg nsz float %18
  %29 = fneg nsz float %20
  %30 = fneg nsz float %14
  br label %33

.preheader:                                       ; preds = %33
  %31 = icmp samesign ugt i64 %4, 13
  br i1 %31, label %.lr.ph107.preheader, label %._crit_edge

.lr.ph107.preheader:                              ; preds = %.preheader
  %32 = add nsw i64 %4, -2
  br label %.lr.ph107

33:                                               ; preds = %.lr.ph, %33
  %indvars.iv = phi i64 [ 0, %.lr.ph ], [ %indvars.iv.next, %33 ]
  %34 = getelementptr inbounds nuw ptr, ptr %1, i64 %indvars.iv
  %35 = load ptr, ptr %34, align 8, !tbaa !70
  %36 = getelementptr inbounds float, ptr %35, i64 %3
  %37 = getelementptr inbounds i8, ptr %36, i64 -16
  %38 = load float, ptr %37, align 4, !tbaa !33
  %39 = getelementptr inbounds i8, ptr %36, i64 -4
  %40 = load float, ptr %39, align 4, !tbaa !33
  %41 = fmul nsz float %40, %26
  %42 = tail call nsz float @llvm.fmuladd.f32(float %38, float %6, float %41)
  %43 = getelementptr inbounds i8, ptr %36, i64 -12
  %44 = load float, ptr %43, align 4, !tbaa !33
  %45 = getelementptr inbounds i8, ptr %36, i64 -8
  %46 = load float, ptr %45, align 4, !tbaa !33
  %47 = fmul nsz float %46, %27
  %48 = tail call nsz float @llvm.fmuladd.f32(float %44, float %8, float %47)
  %49 = getelementptr inbounds nuw i8, ptr %36, i64 8
  %50 = load float, ptr %49, align 4, !tbaa !33
  %51 = getelementptr inbounds nuw i8, ptr %36, i64 4
  %52 = load float, ptr %51, align 4, !tbaa !33
  %53 = fmul nsz float %10, %52
  %54 = tail call nsz float @llvm.fmuladd.f32(float %50, float %8, float %53)
  %55 = getelementptr inbounds nuw i8, ptr %36, i64 12
  %56 = load float, ptr %55, align 4, !tbaa !33
  %57 = load float, ptr %36, align 4, !tbaa !33
  %58 = fmul nsz float %12, %57
  %59 = tail call nsz float @llvm.fmuladd.f32(float %56, float %6, float %58)
  %60 = fneg nsz float %54
  %61 = fmul nsz float %16, %60
  %62 = tail call nsz float @llvm.fmuladd.f32(float %14, float %48, float %61)
  %63 = tail call nsz float @llvm.fmuladd.f32(float %20, float %42, float %62)
  %64 = tail call nsz float @llvm.fmuladd.f32(float %28, float %59, float %63)
  %65 = getelementptr inbounds nuw [4 x float], ptr %0, i64 %indvars.iv
  store float %64, ptr %65, align 4, !tbaa !33
  %66 = fneg nsz float %42
  %67 = fmul nsz float %16, %66
  %68 = tail call nsz float @llvm.fmuladd.f32(float %14, float %59, float %67)
  %69 = tail call nsz float @llvm.fmuladd.f32(float %29, float %48, float %68)
  %70 = tail call nsz float @llvm.fmuladd.f32(float %28, float %54, float %69)
  %71 = getelementptr inbounds nuw i8, ptr %65, i64 4
  store float %70, ptr %71, align 4, !tbaa !33
  %72 = fmul nsz float %16, %59
  %73 = tail call nsz float @llvm.fmuladd.f32(float %18, float %48, float %72)
  %74 = tail call nsz float @llvm.fmuladd.f32(float %29, float %54, float %73)
  %75 = tail call nsz float @llvm.fmuladd.f32(float %14, float %42, float %74)
  %76 = getelementptr inbounds nuw i8, ptr %65, i64 8
  store float %75, ptr %76, align 4, !tbaa !33
  %77 = fneg nsz float %48
  %78 = fmul nsz float %16, %77
  %79 = tail call nsz float @llvm.fmuladd.f32(float %18, float %42, float %78)
  %80 = tail call nsz float @llvm.fmuladd.f32(float %20, float %59, float %79)
  %81 = tail call nsz float @llvm.fmuladd.f32(float %30, float %54, float %80)
  %82 = getelementptr inbounds nuw i8, ptr %65, i64 12
  store float %81, ptr %82, align 4, !tbaa !33
  %indvars.iv.next = add nuw nsw i64 %indvars.iv, 1
  %exitcond.not = icmp eq i64 %indvars.iv.next, %4
  br i1 %exitcond.not, label %.preheader, label %33, !llvm.loop !72

.lr.ph107:                                        ; preds = %.lr.ph107.preheader, %.lr.ph107
  %indvars.iv109 = phi i64 [ 12, %.lr.ph107.preheader ], [ %indvars.iv.next110, %.lr.ph107 ]
  %83 = getelementptr inbounds nuw [4 x float], ptr %0, i64 %indvars.iv109
  %84 = getelementptr inbounds nuw i8, ptr %83, i64 12
  %85 = load float, ptr %84, align 4, !tbaa !33
  %86 = fmul nsz float %22, %85
  %indvars.iv.next110 = add nuw nsw i64 %indvars.iv109, 1
  %87 = getelementptr inbounds nuw [4 x float], ptr %0, i64 %indvars.iv.next110
  %88 = load float, ptr %87, align 4, !tbaa !33
  %89 = fmul nsz float %22, %88
  %90 = fsub nsz float %89, %86
  %91 = fadd nsz float %85, %90
  store float %91, ptr %84, align 4, !tbaa !33
  %92 = fadd nsz float %86, %89
  %93 = fsub nsz float %88, %92
  store float %93, ptr %87, align 4, !tbaa !33
  %94 = getelementptr inbounds nuw i8, ptr %83, i64 8
  %95 = load float, ptr %94, align 4, !tbaa !33
  %96 = fmul nsz float %24, %95
  %97 = getelementptr inbounds nuw i8, ptr %87, i64 4
  %98 = load float, ptr %97, align 4, !tbaa !33
  %99 = fmul nsz float %24, %98
  %100 = fsub nsz float %99, %96
  %101 = fadd nsz float %95, %100
  store float %101, ptr %94, align 4, !tbaa !33
  %102 = fadd nsz float %96, %99
  %103 = fsub nsz float %98, %102
  store float %103, ptr %97, align 4, !tbaa !33
  %exitcond112.not = icmp eq i64 %indvars.iv109, %32
  br i1 %exitcond112.not, label %._crit_edge, label %.lr.ph107, !llvm.loop !73

._crit_edge:                                      ; preds = %.lr.ph107, %5, %.preheader
  ret void
}